(dp0
S'eventID'
p1
(lp2
sS'dEdx'
p3
(lp4
sS'x_start'
p5
(lp6
sS'dE'
p7
(lp8
sS't_start'
p9
(lp10
sS'z_end'
p11
(lp12
sS'trackID'
p13
(lp14
sS'x_end'
p15
(lp16
sS'y_end'
p17
(lp18
sS'n_electrons'
p19
(lp20
sS't'
p21
(lp22
sS'dx'
p23
(lp24
sS'pdgId'
p25
(lp26
sS'y'
p27
(lp28
sS'x'
p29
(lp30
sS'long_diff'
p31
(lp32
sS'z'
p33
(lp34
sS'z_start'
p35
(lp36
sS'y_start'
p37
(lp38
sS'tran_diff'
p39
(lp40
sS't_end'
p41
(lp42
s.